; Function Attrs: mustprogress nofree norecurse nosync nounwind willreturn memory(read, inaccessiblemem: none) uwtable
define internal range(i32 0, 99) i32 @probe(ptr noundef readonly captures(none) %0) #0 {
  %2 = getelementptr inbounds nuw i8, ptr %0, i64 8
  %3 = load ptr, ptr %2, align 8, !tbaa !4
  %4 = load i32, ptr %3, align 1, !tbaa !11
  %5 = icmp eq i32 %4, 1179208516
  br i1 %5, label %6, label %13

6:                                                ; preds = %1
  %7 = getelementptr inbounds nuw i8, ptr %3, i64 4
  %8 = load i16, ptr %7, align 1, !tbaa !11
  %.not = icmp eq i16 %8, 0
  br i1 %.not, label %9, label %13

9:                                                ; preds = %6
  %10 = getelementptr inbounds nuw i8, ptr %3, i64 6
  %11 = load i16, ptr %10, align 1, !tbaa !11
  %12 = icmp eq i16 %11, 32
  br i1 %12, label %14, label %13

13:                                               ; preds = %9, %6, %1
  br label %14

14:                                               ; preds = %9, %13
  %.0 = phi i32 [ 0, %13 ], [ 98, %9 ]
  ret i32 %.0
}